(dp1
S'valid_loss'
p2
(lp3
sS'avg_train_loss'
p4
(lp5
cnumpy.core.multiarray
scalar
p6
(cnumpy
dtype
p7
(S'f8'
I0
I1
tRp8
(I3
S'<'
NNNI-1
I-1
I0
tbS'cQ,\xcb\x86\x82U@'
tRp9
asS'test_acc'
p10
g6
(g8
S'\x1f\x85\xebQ\xb8\x1e+@'
tRp11
sS'avg_train_acc'
p12
(lp13
g6
(g8
S'\x00\x00\x00\x00\x00\x00,@'
tRp14
asS'valid_acc'
p15
(lp16
sS'test_loss'
p17
g6
(g8
S'\xd9\x9fr\x82\xe1FZ@'
tRp18
s.